target datalayout = "e-m:e-p270:32:32-p271:32:32-p272:64:64-i64:64-i128:128-f80:128-n8:16:32:64-S128"
target triple = "x86_64-pc-linux-gnu"

@.str.53 = private unnamed_addr constant [31 x i8] c"../openssl/test/evp_kdf_test.c\00", align 1
@.str.105 = private unnamed_addr constant [33 x i8] c"obj = OBJ_nid2obj(NID_id_pbkdf2)\00", align 1
@.str.106 = private unnamed_addr constant [55 x i8] c"kdf1 = EVP_KDF_fetch(NULL, OSSL_KDF_NAME_PBKDF2, NULL)\00", align 1
@.str.107 = private unnamed_addr constant [7 x i8] c"PBKDF2\00", align 1
@.str.108 = private unnamed_addr constant [63 x i8] c"kdf2 = EVP_KDF_fetch(NULL, OBJ_nid2sn(OBJ_obj2nid(obj)), NULL)\00", align 1
@.str.109 = private unnamed_addr constant [46 x i8] c"kdf1 = EVP_KDF_fetch(NULL, SN_tls1_prf, NULL)\00", align 1
@.str.110 = private unnamed_addr constant [9 x i8] c"TLS1-PRF\00", align 1
@.str.111 = private unnamed_addr constant [46 x i8] c"kdf2 = EVP_KDF_fetch(NULL, LN_tls1_prf, NULL)\00", align 1
@.str.112 = private unnamed_addr constant [9 x i8] c"tls1-prf\00", align 1
@.str.113 = private unnamed_addr constant [59 x i8] c"kdf2 = EVP_KDF_fetch(NULL, OBJ_nid2sn(NID_tls1_prf), NULL)\00", align 1

; Function Attrs: nounwind uwtable
define internal i32 @test_kdf_get_kdf() #0 {
  %1 = alloca ptr, align 8
  %2 = alloca ptr, align 8
  %3 = alloca ptr, align 8
  %4 = alloca i32, align 4
  call void @llvm.lifetime.start.p0(i64 8, ptr %1) #6
  store ptr null, ptr %1, align 8, !tbaa !26
  call void @llvm.lifetime.start.p0(i64 8, ptr %2) #6
  store ptr null, ptr %2, align 8, !tbaa !26
  call void @llvm.lifetime.start.p0(i64 8, ptr %3) #6
  call void @llvm.lifetime.start.p0(i64 4, ptr %4) #6
  store i32 1, ptr %4, align 4, !tbaa !4
  %5 = call ptr @OBJ_nid2obj(i32 noundef 69)
  store ptr %5, ptr %3, align 8, !tbaa !28
  %6 = call i32 @test_ptr(ptr noundef @.str.53, i32 noundef 1765, ptr noundef @.str.105, ptr noundef %5)
  %7 = icmp ne i32 %6, 0
  br i1 %7, label %8, label %24

8:                                                ; preds = %0
  %9 = call ptr @EVP_KDF_fetch(ptr noundef null, ptr noundef @.str.107, ptr noundef null)
  store ptr %9, ptr %1, align 8, !tbaa !26
  %10 = call i32 @test_ptr(ptr noundef @.str.53, i32 noundef 1766, ptr noundef @.str.106, ptr noundef %9)
  %11 = icmp ne i32 %10, 0
  br i1 %11, label %12, label %24

12:                                               ; preds = %8
  %13 = load ptr, ptr %3, align 8, !tbaa !28
  %14 = call i32 @OBJ_obj2nid(ptr noundef %13)
  %15 = call ptr @OBJ_nid2sn(i32 noundef %14)
  %16 = call ptr @EVP_KDF_fetch(ptr noundef null, ptr noundef %15, ptr noundef null)
  store ptr %16, ptr %2, align 8, !tbaa !26
  %17 = call i32 @test_ptr(ptr noundef @.str.53, i32 noundef 1768, ptr noundef @.str.108, ptr noundef %16)
  %18 = icmp ne i32 %17, 0
  br i1 %18, label %19, label %24

19:                                               ; preds = %12
  %20 = load ptr, ptr %1, align 8, !tbaa !26
  %21 = load ptr, ptr %2, align 8, !tbaa !26
  %22 = call i32 @test_kdfs_same(ptr noundef %20, ptr noundef %21)
  %23 = icmp ne i32 %22, 0
  br i1 %23, label %25, label %24

24:                                               ; preds = %19, %12, %8, %0
  store i32 0, ptr %4, align 4, !tbaa !4
  br label %25

25:                                               ; preds = %24, %19
  %26 = load ptr, ptr %1, align 8, !tbaa !26
  call void @EVP_KDF_free(ptr noundef %26)
  store ptr null, ptr %1, align 8, !tbaa !26
  %27 = load ptr, ptr %2, align 8, !tbaa !26
  call void @EVP_KDF_free(ptr noundef %27)
  store ptr null, ptr %2, align 8, !tbaa !26
  %28 = call ptr @EVP_KDF_fetch(ptr noundef null, ptr noundef @.str.110, ptr noundef null)
  store ptr %28, ptr %1, align 8, !tbaa !26
  %29 = call i32 @test_ptr(ptr noundef @.str.53, i32 noundef 1776, ptr noundef @.str.109, ptr noundef %28)
  %30 = icmp ne i32 %29, 0
  br i1 %30, label %31, label %40

31:                                               ; preds = %25
  %32 = call ptr @EVP_KDF_fetch(ptr noundef null, ptr noundef @.str.112, ptr noundef null)
  store ptr %32, ptr %2, align 8, !tbaa !26
  %33 = call i32 @test_ptr(ptr noundef @.str.53, i32 noundef 1777, ptr noundef @.str.111, ptr noundef %32)
  %34 = icmp ne i32 %33, 0
  br i1 %34, label %35, label %40

35:                                               ; preds = %31
  %36 = load ptr, ptr %1, align 8, !tbaa !26
  %37 = load ptr, ptr %2, align 8, !tbaa !26
  %38 = call i32 @test_kdfs_same(ptr noundef %36, ptr noundef %37)
  %39 = icmp ne i32 %38, 0
  br i1 %39, label %41, label %40

40:                                               ; preds = %35, %31, %25
  store i32 0, ptr %4, align 4, !tbaa !4
  br label %41

41:                                               ; preds = %40, %35
  %42 = load ptr, ptr %2, align 8, !tbaa !26
  call void @EVP_KDF_free(ptr noundef %42)
  store ptr null, ptr %2, align 8, !tbaa !26
  %43 = call ptr @OBJ_nid2sn(i32 noundef 1021)
  %44 = call ptr @EVP_KDF_fetch(ptr noundef null, ptr noundef %43, ptr noundef null)
  store ptr %44, ptr %2, align 8, !tbaa !26
  %45 = call i32 @test_ptr(ptr noundef @.str.53, i32 noundef 1784, ptr noundef @.str.113, ptr noundef %44)
  %46 = icmp ne i32 %45, 0
  br i1 %46, label %47, label %52

47:                                               ; preds = %41
  %48 = load ptr, ptr %1, align 8, !tbaa !26
  %49 = load ptr, ptr %2, align 8, !tbaa !26
  %50 = call i32 @test_kdfs_same(ptr noundef %48, ptr noundef %49)
  %51 = icmp ne i32 %50, 0
  br i1 %51, label %53, label %52

52:                                               ; preds = %47, %41
  store i32 0, ptr %4, align 4, !tbaa !4
  br label %53

53:                                               ; preds = %52, %47
  %54 = load ptr, ptr %1, align 8, !tbaa !26
  call void @EVP_KDF_free(ptr noundef %54)
  store ptr null, ptr %1, align 8, !tbaa !26
  %55 = load ptr, ptr %2, align 8, !tbaa !26
  call void @EVP_KDF_free(ptr noundef %55)
  store ptr null, ptr %2, align 8, !tbaa !26
  %56 = load i32, ptr %4, align 4, !tbaa !4
  call void @llvm.lifetime.end.p0(i64 4, ptr %4) #6
  call void @llvm.lifetime.end.p0(i64 8, ptr %3) #6
  call void @llvm.lifetime.end.p0(i64 8, ptr %2) #6
  call void @llvm.lifetime.end.p0(i64 8, ptr %1) #6
  ret i32 %56
}