; Function Attrs: nounwind uwtable
define internal range(i32 0, 2) i32 @test_kdf_get_kdf() #0 {
  %1 = tail call ptr @OBJ_nid2obj(i32 noundef 69) #6
  %2 = tail call i32 @test_ptr(ptr noundef nonnull @.str.53, i32 noundef 1765, ptr noundef nonnull @.str.105, ptr noundef %1) #6
  %.not = icmp eq i32 %2, 0
  br i1 %.not, label %13, label %3

3:                                                ; preds = %0
  %4 = tail call ptr @EVP_KDF_fetch(ptr noundef null, ptr noundef nonnull @.str.107, ptr noundef null) #6
  %5 = tail call i32 @test_ptr(ptr noundef nonnull @.str.53, i32 noundef 1766, ptr noundef nonnull @.str.106, ptr noundef %4) #6
  %.not17 = icmp eq i32 %5, 0
  br i1 %.not17, label %13, label %6

6:                                                ; preds = %3
  %7 = tail call i32 @OBJ_obj2nid(ptr noundef %1) #6
  %8 = tail call ptr @OBJ_nid2sn(i32 noundef %7) #6
  %9 = tail call ptr @EVP_KDF_fetch(ptr noundef null, ptr noundef %8, ptr noundef null) #6
  %10 = tail call i32 @test_ptr(ptr noundef nonnull @.str.53, i32 noundef 1768, ptr noundef nonnull @.str.108, ptr noundef %9) #6
  %.not18 = icmp eq i32 %10, 0
  br i1 %.not18, label %13, label %11

11:                                               ; preds = %6
  %12 = tail call fastcc i32 @test_kdfs_same(ptr noundef %4, ptr noundef %9)
  br label %13

13:                                               ; preds = %11, %0, %3, %6
  %.115 = phi ptr [ %9, %6 ], [ null, %3 ], [ null, %0 ], [ %9, %11 ]
  %.113 = phi ptr [ %4, %6 ], [ %4, %3 ], [ null, %0 ], [ %4, %11 ]
  %.0 = phi i32 [ 0, %6 ], [ 0, %3 ], [ 0, %0 ], [ %12, %11 ]
  tail call void @EVP_KDF_free(ptr noundef %.113) #6
  tail call void @EVP_KDF_free(ptr noundef %.115) #6
  %14 = tail call ptr @EVP_KDF_fetch(ptr noundef null, ptr noundef nonnull @.str.110, ptr noundef null) #6
  %15 = tail call i32 @test_ptr(ptr noundef nonnull @.str.53, i32 noundef 1776, ptr noundef nonnull @.str.109, ptr noundef %14) #6
  %.not20 = icmp eq i32 %15, 0
  br i1 %.not20, label %21, label %16

16:                                               ; preds = %13
  %17 = tail call ptr @EVP_KDF_fetch(ptr noundef null, ptr noundef nonnull @.str.112, ptr noundef null) #6
  %18 = tail call i32 @test_ptr(ptr noundef nonnull @.str.53, i32 noundef 1777, ptr noundef nonnull @.str.111, ptr noundef %17) #6
  %.not21 = icmp eq i32 %18, 0
  br i1 %.not21, label %21, label %19

19:                                               ; preds = %16
  %20 = tail call fastcc i32 @test_kdfs_same(ptr noundef %14, ptr noundef %17)
  %.not22 = icmp eq i32 %20, 0
  %spec.select25 = select i1 %.not22, i32 0, i32 %.0
  br label %21

21:                                               ; preds = %19, %13, %16
  %.3 = phi ptr [ %17, %16 ], [ null, %13 ], [ %17, %19 ]
  %.1 = phi i32 [ 0, %16 ], [ 0, %13 ], [ %spec.select25, %19 ]
  tail call void @EVP_KDF_free(ptr noundef %.3) #6
  %22 = tail call ptr @OBJ_nid2sn(i32 noundef 1021) #6
  %23 = tail call ptr @EVP_KDF_fetch(ptr noundef null, ptr noundef %22, ptr noundef null) #6
  %24 = tail call i32 @test_ptr(ptr noundef nonnull @.str.53, i32 noundef 1784, ptr noundef nonnull @.str.113, ptr noundef %23) #6
  %.not23 = icmp eq i32 %24, 0
  br i1 %.not23, label %27, label %25

25:                                               ; preds = %21
  %26 = tail call fastcc i32 @test_kdfs_same(ptr noundef %14, ptr noundef %23)
  %.not24 = icmp eq i32 %26, 0
  br i1 %.not24, label %27, label %28

27:                                               ; preds = %25, %21
  br label %28

28:                                               ; preds = %27, %25
  %.2 = phi i32 [ %.1, %25 ], [ 0, %27 ]
  tail call void @EVP_KDF_free(ptr noundef %14) #6
  tail call void @EVP_KDF_free(ptr noundef %23) #6
  ret i32 %.2
}